target datalayout = "e-m:e-p270:32:32-p271:32:32-p272:64:64-i64:64-i128:128-f80:128-n8:16:32:64-S128"
target triple = "x86_64-pc-linux-gnu"

%struct.usershape_s = type { %struct._dtlink_s, ptr, i32, i8, i8, ptr, i32, ptr, i32, i32, i32, i32, i32, ptr, i64, ptr }
%struct._dtlink_s = type { ptr, %union.anon }
%union.anon = type { ptr }

; Function Attrs: nounwind uwtable
define internal zeroext i1 @get_int_lsb_first(ptr noundef %0, i64 noundef %1, ptr noundef %2) #0 {
  %4 = alloca i1, align 1
  %5 = alloca ptr, align 8
  %6 = alloca i64, align 8
  %7 = alloca ptr, align 8
  %8 = alloca i32, align 4
  %9 = alloca i32, align 4
  %10 = alloca i64, align 8
  store ptr %0, ptr %5, align 8
  store i64 %1, ptr %6, align 8
  store ptr %2, ptr %7, align 8
  store i32 0, ptr %9, align 4
  store i64 0, ptr %10, align 8
  br label %11

11:                                               ; preds = %30, %3
  %12 = load i64, ptr %10, align 8
  %13 = load i64, ptr %6, align 8
  %14 = icmp ult i64 %12, %13
  br i1 %14, label %15, label %33

15:                                               ; preds = %11
  %16 = load ptr, ptr %5, align 8
  %17 = call i32 @fgetc(ptr noundef %16)
  store i32 %17, ptr %8, align 4
  %18 = load ptr, ptr %5, align 8
  %19 = call i32 @feof(ptr noundef %18) #13
  %20 = icmp ne i32 %19, 0
  br i1 %20, label %21, label %22

21:                                               ; preds = %15
  store i1 false, ptr %4, align 1
  br label %40

22:                                               ; preds = %15
  %23 = load i32, ptr %8, align 4
  %24 = load i64, ptr %10, align 8
  %25 = mul i64 8, %24
  %26 = trunc i64 %25 to i32
  %27 = shl i32 %23, %26
  %28 = load i32, ptr %9, align 4
  %29 = or i32 %28, %27
  store i32 %29, ptr %9, align 4
  br label %30

30:                                               ; preds = %22
  %31 = load i64, ptr %10, align 8
  %32 = add i64 %31, 1
  store i64 %32, ptr %10, align 8
  br label %11

33:                                               ; preds = %11
  %34 = load i32, ptr %9, align 4
  %35 = icmp ugt i32 %34, 2147483647
  br i1 %35, label %36, label %37

36:                                               ; preds = %33
  store i1 false, ptr %4, align 1
  br label %40

37:                                               ; preds = %33
  %38 = load i32, ptr %9, align 4
  %39 = load ptr, ptr %7, align 8
  store i32 %38, ptr %39, align 4
  store i1 true, ptr %4, align 1
  br label %40

40:                                               ; preds = %37, %36, %21
  %41 = load i1, ptr %4, align 1
  ret i1 %41
}

; Function Attrs: nounwind uwtable
define internal void @webp_size(ptr noundef %0) #0 {
  %2 = alloca ptr, align 8
  %3 = alloca i32, align 4
  %4 = alloca i32, align 4
  store ptr %0, ptr %2, align 8
  %5 = load ptr, ptr %2, align 8
  %6 = getelementptr inbounds %struct.usershape_s, ptr %5, i32 0, i32 12
  store i32 0, ptr %6, align 8
  %7 = load ptr, ptr %2, align 8
  %8 = getelementptr inbounds %struct.usershape_s, ptr %7, i32 0, i32 5
  %9 = load ptr, ptr %8, align 8
  %10 = call i32 @fseek(ptr noundef %9, i64 noundef 15, i32 noundef 0)
  %11 = load ptr, ptr %2, align 8
  %12 = getelementptr inbounds %struct.usershape_s, ptr %11, i32 0, i32 5
  %13 = load ptr, ptr %12, align 8
  %14 = call i32 @fgetc(ptr noundef %13)
  %15 = icmp eq i32 %14, 88
  br i1 %15, label %16, label %38

16:                                               ; preds = %1
  %17 = load ptr, ptr %2, align 8
  %18 = getelementptr inbounds %struct.usershape_s, ptr %17, i32 0, i32 5
  %19 = load ptr, ptr %18, align 8
  %20 = call i32 @fseek(ptr noundef %19, i64 noundef 24, i32 noundef 0)
  %21 = load ptr, ptr %2, align 8
  %22 = getelementptr inbounds %struct.usershape_s, ptr %21, i32 0, i32 5
  %23 = load ptr, ptr %22, align 8
  %24 = call zeroext i1 @get_int_lsb_first(ptr noundef %23, i64 noundef 4, ptr noundef %3)
  br i1 %24, label %25, label %37

25:                                               ; preds = %16
  %26 = load ptr, ptr %2, align 8
  %27 = getelementptr inbounds %struct.usershape_s, ptr %26, i32 0, i32 5
  %28 = load ptr, ptr %27, align 8
  %29 = call zeroext i1 @get_int_lsb_first(ptr noundef %28, i64 noundef 4, ptr noundef %4)
  br i1 %29, label %30, label %37

30:                                               ; preds = %25
  %31 = load i32, ptr %3, align 4
  %32 = load ptr, ptr %2, align 8
  %33 = getelementptr inbounds %struct.usershape_s, ptr %32, i32 0, i32 10
  store i32 %31, ptr %33, align 8
  %34 = load i32, ptr %4, align 4
  %35 = load ptr, ptr %2, align 8
  %36 = getelementptr inbounds %struct.usershape_s, ptr %35, i32 0, i32 11
  store i32 %34, ptr %36, align 4
  br label %37

37:                                               ; preds = %30, %25, %16
  br label %60

38:                                               ; preds = %1
  %39 = load ptr, ptr %2, align 8
  %40 = getelementptr inbounds %struct.usershape_s, ptr %39, i32 0, i32 5
  %41 = load ptr, ptr %40, align 8
  %42 = call i32 @fseek(ptr noundef %41, i64 noundef 26, i32 noundef 0)
  %43 = load ptr, ptr %2, align 8
  %44 = getelementptr inbounds %struct.usershape_s, ptr %43, i32 0, i32 5
  %45 = load ptr, ptr %44, align 8
  %46 = call zeroext i1 @get_int_lsb_first(ptr noundef %45, i64 noundef 2, ptr noundef %3)
  br i1 %46, label %47, label %59

47:                                               ; preds = %38
  %48 = load ptr, ptr %2, align 8
  %49 = getelementptr inbounds %struct.usershape_s, ptr %48, i32 0, i32 5
  %50 = load ptr, ptr %49, align 8
  %51 = call zeroext i1 @get_int_lsb_first(ptr noundef %50, i64 noundef 2, ptr noundef %4)
  br i1 %51, label %52, label %59

52:                                               ; preds = %47
  %53 = load i32, ptr %3, align 4
  %54 = load ptr, ptr %2, align 8
  %55 = getelementptr inbounds %struct.usershape_s, ptr %54, i32 0, i32 10
  store i32 %53, ptr %55, align 8
  %56 = load i32, ptr %4, align 4
  %57 = load ptr, ptr %2, align 8
  %58 = getelementptr inbounds %struct.usershape_s, ptr %57, i32 0, i32 11
  store i32 %56, ptr %58, align 4
  br label %59

59:                                               ; preds = %52, %47, %38
  br label %60

60:                                               ; preds = %59, %37
  ret void
}