; Function Attrs: nofree nounwind uwtable
define internal fastcc void @webp_size(ptr noundef captures(none) initializes((72, 76)) %0) unnamed_addr #5 {
  %2 = getelementptr inbounds nuw i8, ptr %0, i64 72
  store i32 0, ptr %2, align 8
  %3 = getelementptr inbounds nuw i8, ptr %0, i64 32
  %4 = load ptr, ptr %3, align 8
  %5 = tail call i32 @fseek(ptr noundef %4, i64 noundef 15, i32 noundef 0)
  %6 = load ptr, ptr %3, align 8
  %7 = tail call i32 @fgetc(ptr noundef %6)
  %8 = icmp eq i32 %7, 88
  %9 = load ptr, ptr %3, align 8
  br i1 %8, label %10, label %34

10:                                               ; preds = %1
  %11 = tail call i32 @fseek(ptr noundef %9, i64 noundef 24, i32 noundef 0)
  %12 = load ptr, ptr %3, align 8
  br label %13

13:                                               ; preds = %16, %10
  %.015.i = phi i64 [ 0, %10 ], [ %20, %16 ]
  %.01114.i = phi i32 [ 0, %10 ], [ %19, %16 ]
  %14 = tail call i32 @fgetc(ptr noundef %12)
  %15 = tail call i32 @feof(ptr noundef %12) #21
  %.not.i = icmp eq i32 %15, 0
  br i1 %.not.i, label %16, label %get_int_lsb_first.exit.thread

16:                                               ; preds = %13
  %.0.tr.i = trunc i64 %.015.i to i32
  %17 = shl i32 %.0.tr.i, 3
  %18 = shl i32 %14, %17
  %19 = or i32 %18, %.01114.i
  %20 = add nuw nsw i64 %.015.i, 1
  %exitcond.not.i = icmp eq i64 %20, 4
  br i1 %exitcond.not.i, label %21, label %13

21:                                               ; preds = %16
  %22 = icmp slt i32 %19, 0
  br i1 %22, label %get_int_lsb_first.exit.thread, label %get_int_lsb_first.exit

get_int_lsb_first.exit:                           ; preds = %21
  %23 = load ptr, ptr %3, align 8
  br label %24

24:                                               ; preds = %27, %get_int_lsb_first.exit
  %.015.i13 = phi i64 [ 0, %get_int_lsb_first.exit ], [ %31, %27 ]
  %.01114.i14 = phi i32 [ 0, %get_int_lsb_first.exit ], [ %30, %27 ]
  %25 = tail call i32 @fgetc(ptr noundef %23)
  %26 = tail call i32 @feof(ptr noundef %23) #21
  %.not.i15 = icmp eq i32 %26, 0
  br i1 %.not.i15, label %27, label %get_int_lsb_first.exit.thread

27:                                               ; preds = %24
  %.0.tr.i17 = trunc i64 %.015.i13 to i32
  %28 = shl i32 %.0.tr.i17, 3
  %29 = shl i32 %25, %28
  %30 = or i32 %29, %.01114.i14
  %31 = add nuw nsw i64 %.015.i13, 1
  %exitcond.not.i18 = icmp eq i64 %31, 4
  br i1 %exitcond.not.i18, label %32, label %24

32:                                               ; preds = %27
  %33 = icmp slt i32 %30, 0
  br i1 %33, label %get_int_lsb_first.exit.thread, label %get_int_lsb_first.exit.thread.sink.split

34:                                               ; preds = %1
  %35 = tail call i32 @fseek(ptr noundef %9, i64 noundef 26, i32 noundef 0)
  %36 = load ptr, ptr %3, align 8
  br label %37

37:                                               ; preds = %40, %34
  %.015.i20 = phi i64 [ 0, %34 ], [ %44, %40 ]
  %.01114.i21 = phi i32 [ 0, %34 ], [ %43, %40 ]
  %38 = tail call i32 @fgetc(ptr noundef %36)
  %39 = tail call i32 @feof(ptr noundef %36) #21
  %.not.i22 = icmp eq i32 %39, 0
  br i1 %.not.i22, label %40, label %get_int_lsb_first.exit.thread

40:                                               ; preds = %37
  %.0.tr.i24 = trunc i64 %.015.i20 to i32
  %41 = shl i32 %.0.tr.i24, 3
  %42 = shl i32 %38, %41
  %43 = or i32 %42, %.01114.i21
  %44 = add nuw nsw i64 %.015.i20, 1
  %exitcond.not.i25 = icmp eq i64 %44, 2
  br i1 %exitcond.not.i25, label %45, label %37

45:                                               ; preds = %40
  %46 = icmp slt i32 %43, 0
  br i1 %46, label %get_int_lsb_first.exit.thread, label %get_int_lsb_first.exit26

get_int_lsb_first.exit26:                         ; preds = %45
  %47 = load ptr, ptr %3, align 8
  br label %48

48:                                               ; preds = %51, %get_int_lsb_first.exit26
  %.015.i27 = phi i64 [ 0, %get_int_lsb_first.exit26 ], [ %55, %51 ]
  %.01114.i28 = phi i32 [ 0, %get_int_lsb_first.exit26 ], [ %54, %51 ]
  %49 = tail call i32 @fgetc(ptr noundef %47)
  %50 = tail call i32 @feof(ptr noundef %47) #21
  %.not.i29 = icmp eq i32 %50, 0
  br i1 %.not.i29, label %51, label %get_int_lsb_first.exit.thread

51:                                               ; preds = %48
  %.0.tr.i31 = trunc i64 %.015.i27 to i32
  %52 = shl i32 %.0.tr.i31, 3
  %53 = shl i32 %49, %52
  %54 = or i32 %53, %.01114.i28
  %55 = add nuw nsw i64 %.015.i27, 1
  %exitcond.not.i32 = icmp eq i64 %55, 2
  br i1 %exitcond.not.i32, label %56, label %48

56:                                               ; preds = %51
  %57 = icmp slt i32 %54, 0
  br i1 %57, label %get_int_lsb_first.exit.thread, label %get_int_lsb_first.exit.thread.sink.split

get_int_lsb_first.exit.thread.sink.split:         ; preds = %56, %32
  %.lcssa64.sink = phi i32 [ %19, %32 ], [ %43, %56 ]
  %.lcssa63.sink = phi i32 [ %30, %32 ], [ %54, %56 ]
  %58 = getelementptr inbounds nuw i8, ptr %0, i64 64
  store i32 %.lcssa64.sink, ptr %58, align 8
  %59 = getelementptr inbounds nuw i8, ptr %0, i64 68
  store i32 %.lcssa63.sink, ptr %59, align 4
  br label %get_int_lsb_first.exit.thread

get_int_lsb_first.exit.thread:                    ; preds = %37, %48, %13, %24, %get_int_lsb_first.exit.thread.sink.split, %56, %45, %32, %21
  ret void
}